
fibonacci.elf:     file format elf32-littleriscv


Disassembly of section .text:

80000000 <_start>:
80000000:	f14022f3          	csrr	t0,mhartid
80000004:	00029f63          	bnez	t0,80000022 <halt>
80000008:	00002117          	auipc	sp,0x2
8000000c:	ff810113          	addi	sp,sp,-8 # 80002000 <_end>

80000010 <main_entry>:
80000010:	4501                	li	a0,0
80000012:	4581                	li	a1,0
80000014:	0a8000ef          	jal	ra,800000bc <main>
80000018:	00000517          	auipc	a0,0x0
8000001c:	21c50513          	addi	a0,a0,540 # 80000234 <msg>
80000020:	2011                	jal	80000024 <puts>

80000022 <halt>:
80000022:	a001                	j	80000022 <halt>

80000024 <puts>:
80000024:	100002b7          	lui	t0,0x10000

80000028 <uart_print>:
80000028:	00054303          	lbu	t1,0(a0)
8000002c:	00030a63          	beqz	t1,80000040 <uart_end>

80000030 <positive>:
80000030:	0002a383          	lw	t2,0(t0) # 10000000 <UART_BASE>
80000034:	fe03cee3          	bltz	t2,80000030 <positive>
80000038:	0062a023          	sw	t1,0(t0)
8000003c:	0505                	addi	a0,a0,1
8000003e:	b7ed                	j	80000028 <uart_print>

80000040 <uart_end>:
80000040:	8082                	ret

80000042 <fibonacci_asm>:
80000042:	83aa                	mv	t2,a0
80000044:	2019                	jal	8000004a <fibonacci>
80000046:	851e                	mv	a0,t2
80000048:	8082                	ret

8000004a <fibonacci>:
8000004a:	4305                	li	t1,1
8000004c:	02735163          	bge	t1,t2,8000006e <is_one>
80000050:	1161                	addi	sp,sp,-8
80000052:	c006                	sw	ra,0(sp)
80000054:	c21e                	sw	t2,4(sp)
80000056:	13fd                	addi	t2,t2,-1
80000058:	3fcd                	jal	8000004a <fibonacci>
8000005a:	4292                	lw	t0,4(sp)
8000005c:	c21e                	sw	t2,4(sp)
8000005e:	ffe28393          	addi	t2,t0,-2
80000062:	37e5                	jal	8000004a <fibonacci>
80000064:	4292                	lw	t0,4(sp)
80000066:	9396                	add	t2,t2,t0
80000068:	4082                	lw	ra,0(sp)
8000006a:	0121                	addi	sp,sp,8

8000006c <is_zero>:
8000006c:	8082                	ret

8000006e <is_one>:
8000006e:	8082                	ret

80000070 <fibonacci_c>:
80000070:	1101                	addi	sp,sp,-32
80000072:	ce06                	sw	ra,28(sp)
80000074:	cc22                	sw	s0,24(sp)
80000076:	ca26                	sw	s1,20(sp)
80000078:	1000                	addi	s0,sp,32
8000007a:	fea42623          	sw	a0,-20(s0)
8000007e:	fec42783          	lw	a5,-20(s0)
80000082:	e399                	bnez	a5,80000088 <fibonacci_c+0x18>
80000084:	4781                	li	a5,0
80000086:	a02d                	j	800000b0 <fibonacci_c+0x40>
80000088:	fec42703          	lw	a4,-20(s0)
8000008c:	4785                	li	a5,1
8000008e:	00f71463          	bne	a4,a5,80000096 <fibonacci_c+0x26>
80000092:	4785                	li	a5,1
80000094:	a831                	j	800000b0 <fibonacci_c+0x40>
80000096:	fec42783          	lw	a5,-20(s0)
8000009a:	17fd                	addi	a5,a5,-1
8000009c:	853e                	mv	a0,a5
8000009e:	3fc9                	jal	80000070 <fibonacci_c>
800000a0:	84aa                	mv	s1,a0
800000a2:	fec42783          	lw	a5,-20(s0)
800000a6:	17f9                	addi	a5,a5,-2
800000a8:	853e                	mv	a0,a5
800000aa:	37d9                	jal	80000070 <fibonacci_c>
800000ac:	87aa                	mv	a5,a0
800000ae:	97a6                	add	a5,a5,s1
800000b0:	853e                	mv	a0,a5
800000b2:	40f2                	lw	ra,28(sp)
800000b4:	4462                	lw	s0,24(sp)
800000b6:	44d2                	lw	s1,20(sp)
800000b8:	6105                	addi	sp,sp,32
800000ba:	8082                	ret

800000bc <main>:
800000bc:	7139                	addi	sp,sp,-64
800000be:	de06                	sw	ra,60(sp)
800000c0:	dc22                	sw	s0,56(sp)
800000c2:	0080                	addi	s0,sp,64
800000c4:	4799                	li	a5,6
800000c6:	fef42623          	sw	a5,-20(s0)
800000ca:	fe042423          	sw	zero,-24(s0)
800000ce:	fec42503          	lw	a0,-20(s0)
800000d2:	3f79                	jal	80000070 <fibonacci_c>
800000d4:	fea42423          	sw	a0,-24(s0)
800000d8:	fcc40793          	addi	a5,s0,-52
800000dc:	4629                	li	a2,10
800000de:	85be                	mv	a1,a5
800000e0:	fe842503          	lw	a0,-24(s0)
800000e4:	2055                	jal	80000188 <itoa>
800000e6:	800007b7          	lui	a5,0x80000
800000ea:	27478513          	addi	a0,a5,628 # 80000274 <_end+0xffffe274>
800000ee:	3f1d                	jal	80000024 <puts>
800000f0:	fcc40793          	addi	a5,s0,-52
800000f4:	853e                	mv	a0,a5
800000f6:	373d                	jal	80000024 <puts>
800000f8:	800007b7          	lui	a5,0x80000
800000fc:	28878513          	addi	a0,a5,648 # 80000288 <_end+0xffffe288>
80000100:	3715                	jal	80000024 <puts>
80000102:	fec42503          	lw	a0,-20(s0)
80000106:	3f35                	jal	80000042 <fibonacci_asm>
80000108:	fea42423          	sw	a0,-24(s0)
8000010c:	800007b7          	lui	a5,0x80000
80000110:	28c78513          	addi	a0,a5,652 # 8000028c <_end+0xffffe28c>
80000114:	3f01                	jal	80000024 <puts>
80000116:	fcc40793          	addi	a5,s0,-52
8000011a:	4629                	li	a2,10
8000011c:	85be                	mv	a1,a5
8000011e:	fe842503          	lw	a0,-24(s0)
80000122:	209d                	jal	80000188 <itoa>
80000124:	fcc40793          	addi	a5,s0,-52
80000128:	853e                	mv	a0,a5
8000012a:	3ded                	jal	80000024 <puts>
8000012c:	800007b7          	lui	a5,0x80000
80000130:	28878513          	addi	a0,a5,648 # 80000288 <_end+0xffffe288>
80000134:	3dc5                	jal	80000024 <puts>
80000136:	4781                	li	a5,0
80000138:	853e                	mv	a0,a5
8000013a:	50f2                	lw	ra,60(sp)
8000013c:	5462                	lw	s0,56(sp)
8000013e:	6121                	addi	sp,sp,64
80000140:	8082                	ret

80000142 <__itoa>:
80000142:	1141                	addi	sp,sp,-16
80000144:	c422                	sw	s0,8(sp)
80000146:	c606                	sw	ra,12(sp)
80000148:	ffe60713          	addi	a4,a2,-2
8000014c:	02200793          	li	a5,34
80000150:	842e                	mv	s0,a1
80000152:	00e7fa63          	bgeu	a5,a4,80000166 <__itoa+0x24>
80000156:	00058023          	sb	zero,0(a1)
8000015a:	4401                	li	s0,0
8000015c:	40b2                	lw	ra,12(sp)
8000015e:	8522                	mv	a0,s0
80000160:	4422                	lw	s0,8(sp)
80000162:	0141                	addi	sp,sp,16
80000164:	8082                	ret
80000166:	47a9                	li	a5,10
80000168:	00f61e63          	bne	a2,a5,80000184 <__itoa+0x42>
8000016c:	00055c63          	bgez	a0,80000184 <__itoa+0x42>
80000170:	02d00793          	li	a5,45
80000174:	00f58023          	sb	a5,0(a1)
80000178:	40a00533          	neg	a0,a0
8000017c:	4585                	li	a1,1
8000017e:	95a2                	add	a1,a1,s0
80000180:	2029                	jal	8000018a <__utoa>
80000182:	bfe9                	j	8000015c <__itoa+0x1a>
80000184:	4581                	li	a1,0
80000186:	bfe5                	j	8000017e <__itoa+0x3c>

80000188 <itoa>:
80000188:	bf6d                	j	80000142 <__itoa>

8000018a <__utoa>:
8000018a:	7139                	addi	sp,sp,-64
8000018c:	dc22                	sw	s0,56(sp)
8000018e:	842e                	mv	s0,a1
80000190:	800005b7          	lui	a1,0x80000
80000194:	da26                	sw	s1,52(sp)
80000196:	d84a                	sw	s2,48(sp)
80000198:	84b2                	mv	s1,a2
8000019a:	892a                	mv	s2,a0
8000019c:	02500613          	li	a2,37
800001a0:	2a458593          	addi	a1,a1,676 # 800002a4 <_end+0xffffe2a4>
800001a4:	0028                	addi	a0,sp,8
800001a6:	de06                	sw	ra,60(sp)
800001a8:	289d                	jal	8000021e <memcpy>
800001aa:	ffe48693          	addi	a3,s1,-2
800001ae:	02200793          	li	a5,34
800001b2:	4701                	li	a4,0
800001b4:	00d7fc63          	bgeu	a5,a3,800001cc <__utoa+0x42>
800001b8:	00040023          	sb	zero,0(s0)
800001bc:	4401                	li	s0,0
800001be:	50f2                	lw	ra,60(sp)
800001c0:	8522                	mv	a0,s0
800001c2:	5462                	lw	s0,56(sp)
800001c4:	54d2                	lw	s1,52(sp)
800001c6:	5942                	lw	s2,48(sp)
800001c8:	6121                	addi	sp,sp,64
800001ca:	8082                	ret
800001cc:	029977b3          	remu	a5,s2,s1
800001d0:	86ba                	mv	a3,a4
800001d2:	0705                	addi	a4,a4,1
800001d4:	00e40633          	add	a2,s0,a4
800001d8:	03078793          	addi	a5,a5,48
800001dc:	978a                	add	a5,a5,sp
800001de:	fd87c783          	lbu	a5,-40(a5)
800001e2:	fef60fa3          	sb	a5,-1(a2)
800001e6:	87ca                	mv	a5,s2
800001e8:	02995933          	divu	s2,s2,s1
800001ec:	fe97f0e3          	bgeu	a5,s1,800001cc <__utoa+0x42>
800001f0:	00060023          	sb	zero,0(a2)
800001f4:	00d40733          	add	a4,s0,a3
800001f8:	4781                	li	a5,0
800001fa:	40f68633          	sub	a2,a3,a5
800001fe:	fcc7d0e3          	bge	a5,a2,800001be <__utoa+0x34>
80000202:	00074503          	lbu	a0,0(a4)
80000206:	00f40633          	add	a2,s0,a5
8000020a:	00064583          	lbu	a1,0(a2)
8000020e:	00a60023          	sb	a0,0(a2)
80000212:	0785                	addi	a5,a5,1
80000214:	00b70023          	sb	a1,0(a4)
80000218:	177d                	addi	a4,a4,-1
8000021a:	b7c5                	j	800001fa <__utoa+0x70>

8000021c <utoa>:
8000021c:	b7bd                	j	8000018a <__utoa>

8000021e <memcpy>:
8000021e:	832a                	mv	t1,a0
80000220:	ca09                	beqz	a2,80000232 <memcpy+0x14>
80000222:	00058383          	lb	t2,0(a1)
80000226:	00730023          	sb	t2,0(t1)
8000022a:	167d                	addi	a2,a2,-1
8000022c:	0305                	addi	t1,t1,1
8000022e:	0585                	addi	a1,a1,1
80000230:	fa6d                	bnez	a2,80000222 <memcpy+0x4>
80000232:	8082                	ret
